; Function Attrs: mustprogress nofree norecurse nosync nounwind willreturn memory(read, inaccessiblemem: none) uwtable
define noundef zeroext i1 @_ZN8QuantLib6detail8noOptionERKSt6vectorIdSaIdEES5_m(ptr nocapture noundef nonnull readonly align 8 dereferenceable(24) %caps, ptr nocapture noundef nonnull readonly align 8 dereferenceable(24) %floors, i64 noundef %i) local_unnamed_addr #0 {
entry:
  %0 = load ptr, ptr %caps, align 8, !tbaa !3
  %_M_finish.i.i.i = getelementptr inbounds nuw i8, ptr %caps, i64 8
  %1 = load ptr, ptr %_M_finish.i.i.i, align 8, !tbaa !3
  %cmp.i.i.i = icmp eq ptr %0, %1
  br i1 %cmp.i.i.i, label %land.rhs, label %_ZN8QuantLib6detail3getIdNS_4NullIdEEEET_RKSt6vectorIS4_SaIS4_EEmT0_.exit

_ZN8QuantLib6detail3getIdNS_4NullIdEEEET_RKSt6vectorIS4_SaIS4_EEmT0_.exit: ; preds = %entry
  %sub.ptr.lhs.cast.i.i = ptrtoint ptr %1 to i64
  %sub.ptr.rhs.cast.i.i = ptrtoint ptr %0 to i64
  %sub.ptr.sub.i.i = sub i64 %sub.ptr.lhs.cast.i.i, %sub.ptr.rhs.cast.i.i
  %sub.ptr.div.i.i = ashr exact i64 %sub.ptr.sub.i.i, 3
  %cmp.i = icmp ult i64 %i, %sub.ptr.div.i.i
  %add.ptr.i.i.i = getelementptr inbounds i8, ptr %1, i64 -8
  %add.ptr.i.i = getelementptr inbounds nuw double, ptr %0, i64 %i
  %add.ptr.i.i.sink.i = select i1 %cmp.i, ptr %add.ptr.i.i, ptr %add.ptr.i.i.i
  %2 = load double, ptr %add.ptr.i.i.sink.i, align 8, !tbaa !7
  %cmp = fcmp oeq double %2, 0x47EFFFFFE0000000
  br i1 %cmp, label %land.rhs, label %land.end

land.rhs:                                         ; preds = %entry, %_ZN8QuantLib6detail3getIdNS_4NullIdEEEET_RKSt6vectorIS4_SaIS4_EEmT0_.exit
  %3 = load ptr, ptr %floors, align 8, !tbaa !3
  %_M_finish.i.i.i2 = getelementptr inbounds nuw i8, ptr %floors, i64 8
  %4 = load ptr, ptr %_M_finish.i.i.i2, align 8, !tbaa !3
  %cmp.i.i.i3 = icmp eq ptr %3, %4
  br i1 %cmp.i.i.i3, label %land.end, label %if.else.i4

if.else.i4:                                       ; preds = %land.rhs
  %sub.ptr.lhs.cast.i.i5 = ptrtoint ptr %4 to i64
  %sub.ptr.rhs.cast.i.i6 = ptrtoint ptr %3 to i64
  %sub.ptr.sub.i.i7 = sub i64 %sub.ptr.lhs.cast.i.i5, %sub.ptr.rhs.cast.i.i6
  %sub.ptr.div.i.i8 = ashr exact i64 %sub.ptr.sub.i.i7, 3
  %cmp.i9 = icmp ult i64 %i, %sub.ptr.div.i.i8
  %add.ptr.i.i.i10 = getelementptr inbounds i8, ptr %4, i64 -8
  %add.ptr.i.i11 = getelementptr inbounds nuw double, ptr %3, i64 %i
  %add.ptr.i.i.sink.i12 = select i1 %cmp.i9, ptr %add.ptr.i.i11, ptr %add.ptr.i.i.i10
  %5 = load double, ptr %add.ptr.i.i.sink.i12, align 8, !tbaa !7
  %6 = fcmp oeq double %5, 0x47EFFFFFE0000000
  br label %land.end

land.end:                                         ; preds = %if.else.i4, %land.rhs, %_ZN8QuantLib6detail3getIdNS_4NullIdEEEET_RKSt6vectorIS4_SaIS4_EEmT0_.exit
  %7 = phi i1 [ false, %_ZN8QuantLib6detail3getIdNS_4NullIdEEEET_RKSt6vectorIS4_SaIS4_EEmT0_.exit ], [ true, %land.rhs ], [ %6, %if.else.i4 ]
  ret i1 %7
}